; Function Attrs: nounwind uwtable
define hidden range(i32 -1, 1) i32 @dom_attr_owner_element_read(ptr noundef %0, ptr noundef %1) local_unnamed_addr #0 {
  %3 = tail call ptr @dom_object_get_node(ptr noundef %0) #8
  %4 = icmp eq ptr %3, null
  br i1 %4, label %5, label %6, !prof !44

5:                                                ; preds = %2
  tail call void @php_dom_throw_error(i32 noundef 11, i1 noundef zeroext true) #8
  br label %10

6:                                                ; preds = %2
  %7 = getelementptr inbounds nuw i8, ptr %3, i64 40
  %8 = load ptr, ptr %7, align 8, !tbaa !68
  %9 = tail call zeroext i1 @php_dom_create_nullable_object(ptr noundef %8, ptr noundef %1, ptr noundef %0) #8
  br label %10

10:                                               ; preds = %6, %5
  %.0 = phi i32 [ -1, %5 ], [ 0, %6 ]
  ret i32 %.0
}